target datalayout = "e-m:e-p270:32:32-p271:32:32-p272:64:64-i64:64-i128:128-f80:128-n8:16:32:64-S128"
target triple = "x86_64-pc-linux-gnu"

%struct.StringInfoData = type { ptr, i32, i32, i32 }

@.str.1 = private unnamed_addr constant [13 x i8] c"rangetypes.c\00", align 1
@.str.22 = private unnamed_addr constant [30 x i8] c"malformed range literal: \22%s\22\00", align 1
@.str.28 = private unnamed_addr constant [25 x i8] c"Unexpected end of input.\00", align 1
@__func__.range_parse_bound = private unnamed_addr constant [18 x i8] c"range_parse_bound\00", align 1

; Function Attrs: nounwind uwtable
define internal ptr @range_parse_bound(ptr noundef %0, ptr noundef %1, ptr noundef %2, ptr noundef %3, ptr noundef %4) #0 {
  %6 = alloca ptr, align 8
  %7 = alloca ptr, align 8
  %8 = alloca ptr, align 8
  %9 = alloca ptr, align 8
  %10 = alloca ptr, align 8
  %11 = alloca ptr, align 8
  %12 = alloca %struct.StringInfoData, align 8
  %13 = alloca i8, align 1
  %14 = alloca i8, align 1
  %15 = alloca ptr, align 8
  %16 = alloca i32, align 4
  %17 = alloca ptr, align 8
  store ptr %0, ptr %7, align 8
  store ptr %1, ptr %8, align 8
  store ptr %2, ptr %9, align 8
  store ptr %3, ptr %10, align 8
  store ptr %4, ptr %11, align 8
  call void @llvm.lifetime.start.p0(i64 24, ptr %12) #10
  %18 = load ptr, ptr %8, align 8
  %19 = load i8, ptr %18, align 1
  %20 = sext i8 %19 to i32
  %21 = icmp eq i32 %20, 44
  br i1 %21, label %32, label %22

22:                                               ; preds = %5
  %23 = load ptr, ptr %8, align 8
  %24 = load i8, ptr %23, align 1
  %25 = sext i8 %24 to i32
  %26 = icmp eq i32 %25, 41
  br i1 %26, label %32, label %27

27:                                               ; preds = %22
  %28 = load ptr, ptr %8, align 8
  %29 = load i8, ptr %28, align 1
  %30 = sext i8 %29 to i32
  %31 = icmp eq i32 %30, 93
  br i1 %31, label %32, label %35

32:                                               ; preds = %27, %22, %5
  %33 = load ptr, ptr %9, align 8
  store ptr null, ptr %33, align 8
  %34 = load ptr, ptr %10, align 8
  store i8 1, ptr %34, align 1
  br label %148

35:                                               ; preds = %27
  call void @llvm.lifetime.start.p0(i64 1, ptr %13) #10
  store i8 0, ptr %13, align 1
  call void @initStringInfo(ptr noundef %12)
  br label %36

36:                                               ; preds = %139, %35
  %37 = load i8, ptr %13, align 1, !range !7, !noundef !8
  %38 = trunc i8 %37 to i1
  br i1 %38, label %57, label %39

39:                                               ; preds = %36
  %40 = load ptr, ptr %8, align 8
  %41 = load i8, ptr %40, align 1
  %42 = sext i8 %41 to i32
  %43 = icmp eq i32 %42, 44
  br i1 %43, label %54, label %44

44:                                               ; preds = %39
  %45 = load ptr, ptr %8, align 8
  %46 = load i8, ptr %45, align 1
  %47 = sext i8 %46 to i32
  %48 = icmp eq i32 %47, 41
  br i1 %48, label %54, label %49

49:                                               ; preds = %44
  %50 = load ptr, ptr %8, align 8
  %51 = load i8, ptr %50, align 1
  %52 = sext i8 %51 to i32
  %53 = icmp eq i32 %52, 93
  br label %54

54:                                               ; preds = %49, %44, %39
  %55 = phi i1 [ true, %44 ], [ true, %39 ], [ %53, %49 ]
  %56 = xor i1 %55, true
  br label %57

57:                                               ; preds = %54, %36
  %58 = phi i1 [ true, %36 ], [ %56, %54 ]
  br i1 %58, label %59, label %140

59:                                               ; preds = %57
  call void @llvm.lifetime.start.p0(i64 1, ptr %14) #10
  %60 = load ptr, ptr %8, align 8
  %61 = getelementptr inbounds nuw i8, ptr %60, i32 1
  store ptr %61, ptr %8, align 8
  %62 = load i8, ptr %60, align 1
  store i8 %62, ptr %14, align 1
  %63 = load i8, ptr %14, align 1
  %64 = sext i8 %63 to i32
  %65 = icmp eq i32 %64, 0
  br i1 %65, label %66, label %83

66:                                               ; preds = %59
  br label %67

67:                                               ; preds = %66
  br label %68

68:                                               ; preds = %67
  call void @llvm.lifetime.start.p0(i64 8, ptr %15) #10
  %69 = load ptr, ptr %11, align 8
  store ptr %69, ptr %15, align 8
  %70 = load ptr, ptr %15, align 8
  %71 = call zeroext i1 @errsave_start(ptr noundef %70, ptr noundef null)
  br i1 %71, label %72, label %78

72:                                               ; preds = %68
  %73 = call i32 @errcode(i32 noundef 33685634)
  %74 = load ptr, ptr %7, align 8
  %75 = call i32 (ptr, ...) @errmsg(ptr noundef @.str.22, ptr noundef %74)
  %76 = call i32 (ptr, ...) @errdetail(ptr noundef @.str.28)
  %77 = load ptr, ptr %15, align 8
  call void @errsave_finish(ptr noundef %77, ptr noundef @.str.1, i32 noundef 2464, ptr noundef @__func__.range_parse_bound)
  br label %78

78:                                               ; preds = %72, %68
  call void @llvm.lifetime.end.p0(i64 8, ptr %15) #10
  br label %79

79:                                               ; preds = %78
  br label %80

80:                                               ; preds = %79
  store ptr null, ptr %6, align 8
  store i32 1, ptr %16, align 4
  br label %137

81:                                               ; No predecessors!
  br label %82

82:                                               ; preds = %81
  br label %83

83:                                               ; preds = %82, %59
  %84 = load i8, ptr %14, align 1
  %85 = sext i8 %84 to i32
  %86 = icmp eq i32 %85, 92
  br i1 %86, label %87, label %113

87:                                               ; preds = %83
  %88 = load ptr, ptr %8, align 8
  %89 = load i8, ptr %88, align 1
  %90 = sext i8 %89 to i32
  %91 = icmp eq i32 %90, 0
  br i1 %91, label %92, label %109

92:                                               ; preds = %87
  br label %93

93:                                               ; preds = %92
  br label %94

94:                                               ; preds = %93
  call void @llvm.lifetime.start.p0(i64 8, ptr %17) #10
  %95 = load ptr, ptr %11, align 8
  store ptr %95, ptr %17, align 8
  %96 = load ptr, ptr %17, align 8
  %97 = call zeroext i1 @errsave_start(ptr noundef %96, ptr noundef null)
  br i1 %97, label %98, label %104

98:                                               ; preds = %94
  %99 = call i32 @errcode(i32 noundef 33685634)
  %100 = load ptr, ptr %7, align 8
  %101 = call i32 (ptr, ...) @errmsg(ptr noundef @.str.22, ptr noundef %100)
  %102 = call i32 (ptr, ...) @errdetail(ptr noundef @.str.28)
  %103 = load ptr, ptr %17, align 8
  call void @errsave_finish(ptr noundef %103, ptr noundef @.str.1, i32 noundef 2472, ptr noundef @__func__.range_parse_bound)
  br label %104

104:                                              ; preds = %98, %94
  call void @llvm.lifetime.end.p0(i64 8, ptr %17) #10
  br label %105

105:                                              ; preds = %104
  br label %106

106:                                              ; preds = %105
  store ptr null, ptr %6, align 8
  store i32 1, ptr %16, align 4
  br label %137

107:                                              ; No predecessors!
  br label %108

108:                                              ; preds = %107
  br label %109

109:                                              ; preds = %108, %87
  %110 = load ptr, ptr %8, align 8
  %111 = getelementptr inbounds nuw i8, ptr %110, i32 1
  store ptr %111, ptr %8, align 8
  %112 = load i8, ptr %110, align 1
  call void @appendStringInfoChar(ptr noundef %12, i8 noundef signext %112)
  br label %136

113:                                              ; preds = %83
  %114 = load i8, ptr %14, align 1
  %115 = sext i8 %114 to i32
  %116 = icmp eq i32 %115, 34
  br i1 %116, label %117, label %133

117:                                              ; preds = %113
  %118 = load i8, ptr %13, align 1, !range !7, !noundef !8
  %119 = trunc i8 %118 to i1
  br i1 %119, label %121, label %120

120:                                              ; preds = %117
  store i8 1, ptr %13, align 1
  br label %132

121:                                              ; preds = %117
  %122 = load ptr, ptr %8, align 8
  %123 = load i8, ptr %122, align 1
  %124 = sext i8 %123 to i32
  %125 = icmp eq i32 %124, 34
  br i1 %125, label %126, label %130

126:                                              ; preds = %121
  %127 = load ptr, ptr %8, align 8
  %128 = getelementptr inbounds nuw i8, ptr %127, i32 1
  store ptr %128, ptr %8, align 8
  %129 = load i8, ptr %127, align 1
  call void @appendStringInfoChar(ptr noundef %12, i8 noundef signext %129)
  br label %131

130:                                              ; preds = %121
  store i8 0, ptr %13, align 1
  br label %131

131:                                              ; preds = %130, %126
  br label %132

132:                                              ; preds = %131, %120
  br label %135

133:                                              ; preds = %113
  %134 = load i8, ptr %14, align 1
  call void @appendStringInfoChar(ptr noundef %12, i8 noundef signext %134)
  br label %135

135:                                              ; preds = %133, %132
  br label %136

136:                                              ; preds = %135, %109
  store i32 0, ptr %16, align 4
  br label %137

137:                                              ; preds = %136, %106, %80
  call void @llvm.lifetime.end.p0(i64 1, ptr %14) #10
  %138 = load i32, ptr %16, align 4
  switch i32 %138, label %145 [
    i32 0, label %139
  ]

139:                                              ; preds = %137
  br label %36, !llvm.loop !10

140:                                              ; preds = %57
  %141 = getelementptr inbounds nuw %struct.StringInfoData, ptr %12, i32 0, i32 0
  %142 = load ptr, ptr %141, align 8
  %143 = load ptr, ptr %9, align 8
  store ptr %142, ptr %143, align 8
  %144 = load ptr, ptr %10, align 8
  store i8 0, ptr %144, align 1
  store i32 0, ptr %16, align 4
  br label %145

145:                                              ; preds = %140, %137
  call void @llvm.lifetime.end.p0(i64 1, ptr %13) #10
  %146 = load i32, ptr %16, align 4
  switch i32 %146, label %150 [
    i32 0, label %147
  ]

147:                                              ; preds = %145
  br label %148

148:                                              ; preds = %147, %32
  %149 = load ptr, ptr %8, align 8
  store ptr %149, ptr %6, align 8
  store i32 1, ptr %16, align 4
  br label %150

150:                                              ; preds = %148, %145
  call void @llvm.lifetime.end.p0(i64 24, ptr %12) #10
  %151 = load ptr, ptr %6, align 8
  ret ptr %151
}