; Function Attrs: nounwind uwtable
define internal fastcc noundef ptr @range_parse_bound(ptr noundef %0, ptr noundef readonly captures(ret: address, provenance) %1, ptr noundef nonnull writeonly captures(none) %2, ptr noundef nonnull writeonly captures(none) %3, ptr noundef %4) unnamed_addr #0 {
  %6 = alloca %struct.StringInfoData, align 8
  call void @llvm.lifetime.start.p0(i64 24, ptr nonnull %6) #14
  %7 = load i8, ptr %1, align 1
  switch i8 %7, label %9 [
    i8 44, label %8
    i8 41, label %8
    i8 93, label %8
  ]

8:                                                ; preds = %5, %5, %5
  store ptr null, ptr %2, align 8
  store i8 1, ptr %3, align 1
  br label %38

9:                                                ; preds = %5
  call void @initStringInfo(ptr noundef nonnull %6) #14
  br label %10

10:                                               ; preds = %.backedge, %9
  %.039 = phi i1 [ false, %9 ], [ %.039.be, %.backedge ]
  %.136 = phi ptr [ %1, %9 ], [ %.136.be, %.backedge ]
  %.pr = load i8, ptr %.136, align 1
  br i1 %.039, label %.critedge, label %11

11:                                               ; preds = %10
  switch i8 %.pr, label %.critedge [
    i8 44, label %36
    i8 41, label %36
    i8 93, label %36
  ]

.critedge:                                        ; preds = %10, %11
  %12 = getelementptr inbounds nuw i8, ptr %.136, i64 1
  switch i8 %.pr, label %.sink.split [
    i8 0, label %13
    i8 92, label %19
    i8 34, label %30
  ]

13:                                               ; preds = %.critedge
  %14 = call zeroext i1 @errsave_start(ptr noundef %4, ptr noundef null) #14
  br i1 %14, label %15, label %38

15:                                               ; preds = %13
  %16 = call i32 @errcode(i32 noundef 33685634) #14
  %17 = call i32 (ptr, ...) @errmsg(ptr noundef nonnull @.str.22, ptr noundef %0) #14
  %18 = call i32 (ptr, ...) @errdetail(ptr noundef nonnull @.str.28) #14
  call void @errsave_finish(ptr noundef %4, ptr noundef nonnull @.str.1, i32 noundef 2464, ptr noundef nonnull @__func__.range_parse_bound) #14
  br label %38

19:                                               ; preds = %.critedge
  %20 = load i8, ptr %12, align 1
  %21 = icmp eq i8 %20, 0
  br i1 %21, label %22, label %28

22:                                               ; preds = %19
  %23 = call zeroext i1 @errsave_start(ptr noundef %4, ptr noundef null) #14
  br i1 %23, label %24, label %38

24:                                               ; preds = %22
  %25 = call i32 @errcode(i32 noundef 33685634) #14
  %26 = call i32 (ptr, ...) @errmsg(ptr noundef nonnull @.str.22, ptr noundef %0) #14
  %27 = call i32 (ptr, ...) @errdetail(ptr noundef nonnull @.str.28) #14
  call void @errsave_finish(ptr noundef %4, ptr noundef nonnull @.str.1, i32 noundef 2472, ptr noundef nonnull @__func__.range_parse_bound) #14
  br label %38

28:                                               ; preds = %19
  %29 = getelementptr inbounds nuw i8, ptr %.136, i64 2
  br label %.sink.split

30:                                               ; preds = %.critedge
  br i1 %.039, label %31, label %.backedge

31:                                               ; preds = %30
  %32 = load i8, ptr %12, align 1
  %33 = icmp eq i8 %32, 34
  br i1 %33, label %34, label %.backedge

34:                                               ; preds = %31
  %35 = getelementptr inbounds nuw i8, ptr %.136, i64 2
  br label %.sink.split

.sink.split:                                      ; preds = %.critedge, %34, %28
  %.sink = phi i8 [ %20, %28 ], [ 34, %34 ], [ %.pr, %.critedge ]
  %.140.ph = phi i1 [ %.039, %28 ], [ true, %34 ], [ %.039, %.critedge ]
  %.237.ph = phi ptr [ %29, %28 ], [ %35, %34 ], [ %12, %.critedge ]
  call void @appendStringInfoChar(ptr noundef nonnull %6, i8 noundef signext %.sink) #14
  br label %.backedge

.backedge:                                        ; preds = %.sink.split, %30, %31
  %.039.be = phi i1 [ true, %30 ], [ false, %31 ], [ %.140.ph, %.sink.split ]
  %.136.be = phi ptr [ %12, %30 ], [ %12, %31 ], [ %.237.ph, %.sink.split ]
  br label %10, !llvm.loop !21

36:                                               ; preds = %11, %11, %11
  %37 = load ptr, ptr %6, align 8
  store ptr %37, ptr %2, align 8
  store i8 0, ptr %3, align 1
  br label %38

38:                                               ; preds = %36, %15, %13, %24, %22, %8
  %.3 = phi ptr [ %1, %8 ], [ %.136, %36 ], [ null, %15 ], [ null, %13 ], [ null, %24 ], [ null, %22 ]
  call void @llvm.lifetime.end.p0(i64 24, ptr nonnull %6) #14
  ret ptr %.3
}